target datalayout = "e-m:e-p270:32:32-p271:32:32-p272:64:64-i64:64-i128:128-f80:128-n8:16:32:64-S128"
target triple = "x86_64-pc-linux-gnu"

%struct.SwsPass = type { ptr, ptr, i32, i32, i32, i32, i32, ptr, %struct.SwsImg, ptr, ptr, ptr }
%struct.SwsImg = type { i32, [4 x ptr], [4 x i32] }
%struct.SwsGraph = type { ptr, ptr, i32, i8, i8, ptr, i32, %struct.SwsContext, %struct.SwsFormat, %struct.SwsFormat, i32, %struct.anon }
%struct.SwsContext = type { ptr, ptr, i32, [2 x double], i32, i32, i32, i32, i32, i32, i32, i32, i32, i32, i32, i32, i32, i32, i32, i32, i32 }
%struct.SwsFormat = type { i32, i32, i32, i32, i32, i32, i32, ptr, %struct.SwsColor }
%struct.SwsColor = type { i32, i32, %struct.AVPrimaryCoefficients, %struct.AVRational, %struct.AVRational, %struct.AVRational, %struct.AVRational }
%struct.AVPrimaryCoefficients = type { %struct.AVCIExy, %struct.AVCIExy, %struct.AVCIExy }
%struct.AVCIExy = type { %struct.AVRational, %struct.AVRational }
%struct.AVRational = type { i32, i32 }
%struct.anon = type { ptr, %struct.SwsImg, %struct.SwsImg }

; Function Attrs: nounwind uwtable
define void @ff_sws_graph_free(ptr noundef %0) #0 {
  %2 = alloca ptr, align 8
  %3 = alloca ptr, align 8
  %4 = alloca i32, align 4
  %5 = alloca i32, align 4
  %6 = alloca ptr, align 8
  store ptr %0, ptr %2, align 8, !tbaa !45
  call void @llvm.lifetime.start.p0(i64 8, ptr %3) #11
  %7 = load ptr, ptr %2, align 8, !tbaa !45
  %8 = load ptr, ptr %7, align 8, !tbaa !4
  store ptr %8, ptr %3, align 8, !tbaa !4
  %9 = load ptr, ptr %3, align 8, !tbaa !4
  %10 = icmp ne ptr %9, null
  br i1 %10, label %12, label %11

11:                                               ; preds = %1
  store i32 1, ptr %4, align 4
  br label %64

12:                                               ; preds = %1
  %13 = load ptr, ptr %3, align 8, !tbaa !4
  %14 = getelementptr inbounds nuw %struct.SwsGraph, ptr %13, i32 0, i32 1
  call void @avpriv_slicethread_free(ptr noundef %14)
  call void @llvm.lifetime.start.p0(i64 4, ptr %5) #11
  store i32 0, ptr %5, align 4, !tbaa !9
  br label %15

15:                                               ; preds = %55, %12
  %16 = load i32, ptr %5, align 4, !tbaa !9
  %17 = load ptr, ptr %3, align 8, !tbaa !4
  %18 = getelementptr inbounds nuw %struct.SwsGraph, ptr %17, i32 0, i32 6
  %19 = load i32, ptr %18, align 8, !tbaa !65
  %20 = icmp slt i32 %16, %19
  br i1 %20, label %22, label %21

21:                                               ; preds = %15
  store i32 2, ptr %4, align 4
  call void @llvm.lifetime.end.p0(i64 4, ptr %5) #11
  br label %58

22:                                               ; preds = %15
  call void @llvm.lifetime.start.p0(i64 8, ptr %6) #11
  %23 = load ptr, ptr %3, align 8, !tbaa !4
  %24 = getelementptr inbounds nuw %struct.SwsGraph, ptr %23, i32 0, i32 5
  %25 = load ptr, ptr %24, align 8, !tbaa !66
  %26 = load i32, ptr %5, align 4, !tbaa !9
  %27 = sext i32 %26 to i64
  %28 = getelementptr inbounds ptr, ptr %25, i64 %27
  %29 = load ptr, ptr %28, align 8, !tbaa !11
  store ptr %29, ptr %6, align 8, !tbaa !11
  %30 = load ptr, ptr %6, align 8, !tbaa !11
  %31 = getelementptr inbounds nuw %struct.SwsPass, ptr %30, i32 0, i32 10
  %32 = load ptr, ptr %31, align 8, !tbaa !67
  %33 = icmp ne ptr %32, null
  br i1 %33, label %34, label %41

34:                                               ; preds = %22
  %35 = load ptr, ptr %6, align 8, !tbaa !11
  %36 = getelementptr inbounds nuw %struct.SwsPass, ptr %35, i32 0, i32 10
  %37 = load ptr, ptr %36, align 8, !tbaa !67
  %38 = load ptr, ptr %6, align 8, !tbaa !11
  %39 = getelementptr inbounds nuw %struct.SwsPass, ptr %38, i32 0, i32 11
  %40 = load ptr, ptr %39, align 8, !tbaa !18
  call void %37(ptr noundef %40)
  br label %41

41:                                               ; preds = %34, %22
  %42 = load ptr, ptr %6, align 8, !tbaa !11
  %43 = getelementptr inbounds nuw %struct.SwsPass, ptr %42, i32 0, i32 8
  %44 = getelementptr inbounds nuw %struct.SwsImg, ptr %43, i32 0, i32 0
  %45 = load i32, ptr %44, align 8, !tbaa !23
  %46 = icmp ne i32 %45, -1
  br i1 %46, label %47, label %53

47:                                               ; preds = %41
  %48 = load ptr, ptr %6, align 8, !tbaa !11
  %49 = getelementptr inbounds nuw %struct.SwsPass, ptr %48, i32 0, i32 8
  %50 = getelementptr inbounds nuw %struct.SwsImg, ptr %49, i32 0, i32 1
  %51 = getelementptr inbounds [4 x ptr], ptr %50, i64 0, i64 0
  %52 = load ptr, ptr %51, align 8, !tbaa !68
  call void @av_free(ptr noundef %52)
  br label %53

53:                                               ; preds = %47, %41
  %54 = load ptr, ptr %6, align 8, !tbaa !11
  call void @av_free(ptr noundef %54)
  call void @llvm.lifetime.end.p0(i64 8, ptr %6) #11
  br label %55

55:                                               ; preds = %53
  %56 = load i32, ptr %5, align 4, !tbaa !9
  %57 = add nsw i32 %56, 1
  store i32 %57, ptr %5, align 4, !tbaa !9
  br label %15, !llvm.loop !70

58:                                               ; preds = %21
  %59 = load ptr, ptr %3, align 8, !tbaa !4
  %60 = getelementptr inbounds nuw %struct.SwsGraph, ptr %59, i32 0, i32 5
  %61 = load ptr, ptr %60, align 8, !tbaa !66
  call void @av_free(ptr noundef %61)
  %62 = load ptr, ptr %3, align 8, !tbaa !4
  call void @av_free(ptr noundef %62)
  %63 = load ptr, ptr %2, align 8, !tbaa !45
  store ptr null, ptr %63, align 8, !tbaa !4
  store i32 0, ptr %4, align 4
  br label %64

64:                                               ; preds = %58, %11
  call void @llvm.lifetime.end.p0(i64 8, ptr %3) #11
  %65 = load i32, ptr %4, align 4
  switch i32 %65, label %67 [
    i32 0, label %66
    i32 1, label %66
  ]

66:                                               ; preds = %64, %64
  ret void

67:                                               ; preds = %64
  unreachable
}