; Function Attrs: nounwind uwtable
define void @ff_sws_graph_free(ptr noundef captures(none) %0) local_unnamed_addr #0 {
  %2 = load ptr, ptr %0, align 8, !tbaa !39
  %.not = icmp eq ptr %2, null
  br i1 %.not, label %30, label %3

3:                                                ; preds = %1
  %4 = getelementptr inbounds nuw i8, ptr %2, i64 8
  tail call void @avpriv_slicethread_free(ptr noundef nonnull %4) #12
  %5 = getelementptr inbounds nuw i8, ptr %2, i64 32
  %6 = load i32, ptr %5, align 8, !tbaa !73
  %7 = icmp sgt i32 %6, 0
  br i1 %7, label %.lr.ph, label %._crit_edge

.lr.ph:                                           ; preds = %3
  %8 = getelementptr inbounds nuw i8, ptr %2, i64 24
  br label %11

._crit_edge:                                      ; preds = %26, %3
  %9 = getelementptr inbounds nuw i8, ptr %2, i64 24
  %10 = load ptr, ptr %9, align 8, !tbaa !74
  tail call void @av_free(ptr noundef %10) #12
  tail call void @av_free(ptr noundef nonnull %2) #12
  store ptr null, ptr %0, align 8, !tbaa !39
  br label %30

11:                                               ; preds = %.lr.ph, %26
  %indvars.iv = phi i64 [ 0, %.lr.ph ], [ %indvars.iv.next, %26 ]
  %12 = load ptr, ptr %8, align 8, !tbaa !74
  %13 = getelementptr inbounds nuw ptr, ptr %12, i64 %indvars.iv
  %14 = load ptr, ptr %13, align 8, !tbaa !4
  %15 = getelementptr inbounds nuw i8, ptr %14, i64 112
  %16 = load ptr, ptr %15, align 8, !tbaa !70
  %.not18 = icmp eq ptr %16, null
  br i1 %.not18, label %20, label %17

17:                                               ; preds = %11
  %18 = getelementptr inbounds nuw i8, ptr %14, i64 120
  %19 = load ptr, ptr %18, align 8, !tbaa !15
  tail call void %16(ptr noundef %19) #12
  br label %20

20:                                               ; preds = %17, %11
  %21 = getelementptr inbounds nuw i8, ptr %14, i64 48
  %22 = load i32, ptr %21, align 8, !tbaa !20
  %.not19 = icmp eq i32 %22, -1
  br i1 %.not19, label %26, label %23

23:                                               ; preds = %20
  %24 = getelementptr inbounds nuw i8, ptr %14, i64 56
  %25 = load ptr, ptr %24, align 8, !tbaa !75
  tail call void @av_free(ptr noundef %25) #12
  br label %26

26:                                               ; preds = %23, %20
  tail call void @av_free(ptr noundef nonnull %14) #12
  %indvars.iv.next = add nuw nsw i64 %indvars.iv, 1
  %27 = load i32, ptr %5, align 8, !tbaa !73
  %28 = sext i32 %27 to i64
  %29 = icmp slt i64 %indvars.iv.next, %28
  br i1 %29, label %11, label %._crit_edge, !llvm.loop !76

30:                                               ; preds = %1, %._crit_edge
  ret void
}